target datalayout = "e-m:e-p270:32:32-p271:32:32-p272:64:64-i64:64-i128:128-f80:128-n8:16:32:64-S128"
target triple = "x86_64-pc-linux-gnu"

; Function Attrs: nounwind uwtable
define internal void @hor_4x4_c(ptr noundef %0, i64 noundef %1, ptr noundef %2, ptr noundef %3) #1 {
  %5 = alloca ptr, align 8
  %6 = alloca i64, align 8
  %7 = alloca ptr, align 8
  %8 = alloca ptr, align 8
  %9 = alloca ptr, align 8
  %10 = alloca ptr, align 8
  store ptr %0, ptr %5, align 8, !tbaa !10
  store i64 %1, ptr %6, align 8, !tbaa !12
  store ptr %2, ptr %7, align 8, !tbaa !10
  store ptr %3, ptr %8, align 8, !tbaa !10
  call void @llvm.lifetime.start.p0(i64 8, ptr %9) #10
  %11 = load ptr, ptr %5, align 8, !tbaa !10
  store ptr %11, ptr %9, align 8, !tbaa !10
  call void @llvm.lifetime.start.p0(i64 8, ptr %10) #10
  %12 = load ptr, ptr %7, align 8, !tbaa !10
  store ptr %12, ptr %10, align 8, !tbaa !10
  %13 = load i64, ptr %6, align 8, !tbaa !12
  %14 = udiv i64 %13, 1
  store i64 %14, ptr %6, align 8, !tbaa !12
  %15 = load ptr, ptr %10, align 8, !tbaa !10
  %16 = getelementptr inbounds i8, ptr %15, i64 3
  %17 = load i8, ptr %16, align 1, !tbaa !14
  %18 = zext i8 %17 to i32
  %19 = mul i32 %18, 16843009
  %20 = load ptr, ptr %9, align 8, !tbaa !10
  %21 = load i64, ptr %6, align 8, !tbaa !12
  %22 = mul nsw i64 %21, 0
  %23 = getelementptr inbounds i8, ptr %20, i64 %22
  store i32 %19, ptr %23, align 4, !tbaa !14
  %24 = load ptr, ptr %10, align 8, !tbaa !10
  %25 = getelementptr inbounds i8, ptr %24, i64 2
  %26 = load i8, ptr %25, align 1, !tbaa !14
  %27 = zext i8 %26 to i32
  %28 = mul i32 %27, 16843009
  %29 = load ptr, ptr %9, align 8, !tbaa !10
  %30 = load i64, ptr %6, align 8, !tbaa !12
  %31 = mul nsw i64 %30, 1
  %32 = getelementptr inbounds i8, ptr %29, i64 %31
  store i32 %28, ptr %32, align 4, !tbaa !14
  %33 = load ptr, ptr %10, align 8, !tbaa !10
  %34 = getelementptr inbounds i8, ptr %33, i64 1
  %35 = load i8, ptr %34, align 1, !tbaa !14
  %36 = zext i8 %35 to i32
  %37 = mul i32 %36, 16843009
  %38 = load ptr, ptr %9, align 8, !tbaa !10
  %39 = load i64, ptr %6, align 8, !tbaa !12
  %40 = mul nsw i64 %39, 2
  %41 = getelementptr inbounds i8, ptr %38, i64 %40
  store i32 %37, ptr %41, align 4, !tbaa !14
  %42 = load ptr, ptr %10, align 8, !tbaa !10
  %43 = getelementptr inbounds i8, ptr %42, i64 0
  %44 = load i8, ptr %43, align 1, !tbaa !14
  %45 = zext i8 %44 to i32
  %46 = mul i32 %45, 16843009
  %47 = load ptr, ptr %9, align 8, !tbaa !10
  %48 = load i64, ptr %6, align 8, !tbaa !12
  %49 = mul nsw i64 %48, 3
  %50 = getelementptr inbounds i8, ptr %47, i64 %49
  store i32 %46, ptr %50, align 4, !tbaa !14
  call void @llvm.lifetime.end.p0(i64 8, ptr %10) #10
  call void @llvm.lifetime.end.p0(i64 8, ptr %9) #10
  ret void
}