; Function Attrs: mustprogress nofree norecurse nosync nounwind willreturn memory(argmem: readwrite) uwtable
define internal void @hor_4x4_c(ptr noundef writeonly captures(none) initializes((0, 4)) %0, i64 noundef %1, ptr noundef readonly captures(none) %2, ptr readnone captures(none) %3) #1 {
  %5 = getelementptr inbounds nuw i8, ptr %2, i64 3
  %6 = load i8, ptr %5, align 1, !tbaa !8
  %7 = zext i8 %6 to i32
  %8 = mul nuw i32 %7, 16843009
  store i32 %8, ptr %0, align 4, !tbaa !8
  %9 = getelementptr inbounds nuw i8, ptr %2, i64 2
  %10 = load i8, ptr %9, align 1, !tbaa !8
  %11 = zext i8 %10 to i32
  %12 = mul nuw i32 %11, 16843009
  %13 = getelementptr inbounds i8, ptr %0, i64 %1
  store i32 %12, ptr %13, align 4, !tbaa !8
  %14 = getelementptr inbounds nuw i8, ptr %2, i64 1
  %15 = load i8, ptr %14, align 1, !tbaa !8
  %16 = zext i8 %15 to i32
  %17 = mul nuw i32 %16, 16843009
  %18 = shl nsw i64 %1, 1
  %19 = getelementptr inbounds i8, ptr %0, i64 %18
  store i32 %17, ptr %19, align 4, !tbaa !8
  %20 = load i8, ptr %2, align 1, !tbaa !8
  %21 = zext i8 %20 to i32
  %22 = mul nuw i32 %21, 16843009
  %23 = mul nsw i64 %1, 3
  %24 = getelementptr inbounds i8, ptr %0, i64 %23
  store i32 %22, ptr %24, align 4, !tbaa !8
  ret void
}